target datalayout = "e-m:e-p270:32:32-p271:32:32-p272:64:64-i64:64-i128:128-f80:128-n8:16:32:64-S128"
target triple = "x86_64-pc-linux-gnu"

%struct.PlannerInfo = type { i32, ptr, ptr, i32, ptr, ptr, ptr, ptr, i32, ptr, ptr, ptr, ptr, ptr, ptr, ptr, ptr, i32, ptr, ptr, ptr, ptr, ptr, i8, ptr, ptr, ptr, ptr, ptr, i32, ptr, ptr, ptr, ptr, ptr, ptr, ptr, i32, ptr, ptr, ptr, i32, ptr, ptr, ptr, ptr, ptr, ptr, [8 x ptr], [8 x ptr], ptr, ptr, ptr, ptr, ptr, ptr, ptr, double, double, double, i32, i8, i8, i8, i8, i8, i8, i8, i32, ptr, ptr, i32, i8, i8, i32, ptr, ptr, ptr, ptr, ptr, ptr, i8, ptr }
%struct.Node = type { i32 }
%struct.Plan = type { i32, i32, double, double, double, i32, i8, i8, i8, i32, ptr, ptr, ptr, ptr, ptr, ptr, ptr }

@.str = private unnamed_addr constant [50 x i8] c"failed to assign all NestLoopParams to plan nodes\00", align 1
@.str.1 = private unnamed_addr constant [13 x i8] c"createplan.c\00", align 1
@__func__.create_plan = private unnamed_addr constant [12 x i8] c"create_plan\00", align 1

; Function Attrs: nounwind uwtable
define dso_local ptr @create_plan(ptr noundef %0, ptr noundef %1) #0 {
  %3 = alloca ptr, align 8
  %4 = alloca ptr, align 8
  %5 = alloca ptr, align 8
  store ptr %0, ptr %3, align 8
  store ptr %1, ptr %4, align 8
  call void @llvm.lifetime.start.p0(i64 8, ptr %5) #10
  %6 = load ptr, ptr %3, align 8
  %7 = getelementptr inbounds nuw %struct.PlannerInfo, ptr %6, i32 0, i32 76
  store ptr null, ptr %7, align 8
  %8 = load ptr, ptr %3, align 8
  %9 = getelementptr inbounds nuw %struct.PlannerInfo, ptr %8, i32 0, i32 77
  store ptr null, ptr %9, align 8
  %10 = load ptr, ptr %3, align 8
  %11 = load ptr, ptr %4, align 8
  %12 = call ptr @create_plan_recurse(ptr noundef %10, ptr noundef %11, i32 noundef 1)
  store ptr %12, ptr %5, align 8
  %13 = load ptr, ptr %5, align 8
  %14 = getelementptr inbounds nuw %struct.Node, ptr %13, i32 0, i32 0
  %15 = load i32, ptr %14, align 4
  %16 = icmp eq i32 %15, 332
  br i1 %16, label %24, label %17

17:                                               ; preds = %2
  %18 = load ptr, ptr %5, align 8
  %19 = getelementptr inbounds nuw %struct.Plan, ptr %18, i32 0, i32 10
  %20 = load ptr, ptr %19, align 8
  %21 = load ptr, ptr %3, align 8
  %22 = getelementptr inbounds nuw %struct.PlannerInfo, ptr %21, i32 0, i32 52
  %23 = load ptr, ptr %22, align 8
  call void @apply_tlist_labeling(ptr noundef %20, ptr noundef %23)
  br label %24

24:                                               ; preds = %17, %2
  %25 = load ptr, ptr %3, align 8
  %26 = load ptr, ptr %5, align 8
  call void @SS_attach_initplans(ptr noundef %25, ptr noundef %26)
  %27 = load ptr, ptr %3, align 8
  %28 = getelementptr inbounds nuw %struct.PlannerInfo, ptr %27, i32 0, i32 77
  %29 = load ptr, ptr %28, align 8
  %30 = icmp ne ptr %29, null
  br i1 %30, label %31, label %42

31:                                               ; preds = %24
  br label %32

32:                                               ; preds = %31
  br i1 true, label %33, label %35

33:                                               ; preds = %32
  %34 = call zeroext i1 @errstart_cold(i32 noundef 21, ptr noundef null) #11
  br i1 %34, label %37, label %39

35:                                               ; preds = %32
  %36 = call zeroext i1 @errstart(i32 noundef 21, ptr noundef null)
  br i1 %36, label %37, label %39

37:                                               ; preds = %35, %33
  %38 = call i32 (ptr, ...) @errmsg_internal(ptr noundef @.str)
  call void @errfinish(ptr noundef @.str.1, i32 noundef 375, ptr noundef @__func__.create_plan)
  br label %39

39:                                               ; preds = %37, %35, %33
  unreachable

40:                                               ; No predecessors!
  br label %41

41:                                               ; preds = %40
  br label %42

42:                                               ; preds = %41, %24
  %43 = load ptr, ptr %3, align 8
  %44 = getelementptr inbounds nuw %struct.PlannerInfo, ptr %43, i32 0, i32 5
  store ptr null, ptr %44, align 8
  %45 = load ptr, ptr %5, align 8
  call void @llvm.lifetime.end.p0(i64 8, ptr %5) #10
  ret ptr %45
}