; Function Attrs: nounwind uwtable
define dso_local noundef ptr @create_plan(ptr noundef initializes((648, 664)) %0, ptr noundef %1) local_unnamed_addr #0 {
  %3 = getelementptr inbounds nuw i8, ptr %0, i64 648
  %4 = getelementptr inbounds nuw i8, ptr %0, i64 656
  tail call void @llvm.memset.p0.i64(ptr noundef nonnull align 8 dereferenceable(16) %3, i8 0, i64 16, i1 false)
  %5 = tail call fastcc ptr @create_plan_recurse(ptr noundef %0, ptr noundef %1, i32 noundef 1)
  %6 = load i32, ptr %5, align 4
  %7 = icmp eq i32 %6, 332
  br i1 %7, label %13, label %8

8:                                                ; preds = %2
  %9 = getelementptr inbounds nuw i8, ptr %5, i64 48
  %10 = load ptr, ptr %9, align 8
  %11 = getelementptr inbounds nuw i8, ptr %0, i64 528
  %12 = load ptr, ptr %11, align 8
  tail call void @apply_tlist_labeling(ptr noundef %10, ptr noundef %12) #12
  br label %13

13:                                               ; preds = %8, %2
  tail call void @SS_attach_initplans(ptr noundef nonnull %0, ptr noundef nonnull %5) #12
  %14 = load ptr, ptr %4, align 8
  %.not = icmp eq ptr %14, null
  br i1 %.not, label %18, label %15

15:                                               ; preds = %13
  %16 = tail call zeroext i1 @errstart_cold(i32 noundef 21, ptr noundef null) #13
  tail call void @llvm.assume(i1 %16)
  %17 = tail call i32 (ptr, ...) @errmsg_internal(ptr noundef nonnull @.str) #12
  tail call void @errfinish(ptr noundef nonnull @.str.1, i32 noundef 375, ptr noundef nonnull @__func__.create_plan) #12
  unreachable

18:                                               ; preds = %13
  %19 = getelementptr inbounds nuw i8, ptr %0, i64 40
  store ptr null, ptr %19, align 8
  ret ptr %5
}